target datalayout = "e-m:e-p270:32:32-p271:32:32-p272:64:64-i64:64-i128:128-f80:128-n8:16:32:64-S128"
target triple = "x86_64-pc-linux-gnu"

%struct.jit_State = type { %struct.GCtrace, ptr, ptr, ptr, ptr, ptr, ptr, i32, i32, i32, i8, i8, %struct.IRType1, i8, %struct.FoldState, ptr, i32, i32, i32, i32, i32, i32, i32, [1 x i32], [5 x %union.TValue], [3 x %union.TValue], ptr, i32, i32, i32, i32, ptr, ptr, i32, i32, i8, ptr, i32, i32, i16, [101 x i16], [258 x i32], [15 x i32], [16 x ptr], [64 x %struct.HotPenalty], i32, [16 x %struct.BPropEntry], i32, %struct.ScEvEntry, ptr, i32, i32, i32, ptr, i32, i32, ptr, ptr, ptr, i64, i64, %union.TValue, ptr, i32, i32 }
%struct.GCtrace = type { %struct.GCRef, i8, i8, i16, i32, i32, %struct.GCRef, ptr, i32, i32, ptr, ptr, %struct.GCRef, %struct.MRef, i32, i32, ptr, i32, i16, i16, i16, i16, i16, i16, i16, i8, i8, i8, i8 }
%struct.GCRef = type { i64 }
%struct.MRef = type { i64 }
%struct.IRType1 = type { i8 }
%struct.FoldState = type { %union.IRIns, [2 x %union.IRIns], [2 x %union.IRIns] }
%union.IRIns = type { %struct.GCRef }
%struct.HotPenalty = type { %struct.MRef, i16, i16 }
%struct.BPropEntry = type { i16, i16, i32 }
%struct.ScEvEntry = type { %struct.MRef, i16, i16, i16, i16, %struct.IRType1, i8 }
%union.TValue = type { i64 }
%struct.anon.0 = type { i32, %struct.IRType1, i8, i8, i8 }
%struct.anon = type { i16, i16, i16, i16 }

; Function Attrs: nounwind uwtable
define internal i64 @kfold_int64arith(ptr noundef %0, i64 noundef %1, i64 noundef %2, i32 noundef %3) #0 {
  %5 = alloca ptr, align 8
  %6 = alloca i64, align 8
  %7 = alloca i64, align 8
  %8 = alloca i32, align 4
  store ptr %0, ptr %5, align 8, !tbaa !4
  store i64 %1, ptr %6, align 8, !tbaa !52
  store i64 %2, ptr %7, align 8, !tbaa !52
  store i32 %3, ptr %8, align 4, !tbaa !30
  %9 = load i32, ptr %8, align 4, !tbaa !30
  switch i32 %9, label %77 [
    i32 41, label %10
    i32 42, label %14
    i32 43, label %18
    i32 33, label %22
    i32 34, label %26
    i32 35, label %30
    i32 36, label %34
    i32 37, label %39
    i32 38, label %44
    i32 39, label %49
    i32 40, label %63
  ]

10:                                               ; preds = %4
  %11 = load i64, ptr %7, align 8, !tbaa !52
  %12 = load i64, ptr %6, align 8, !tbaa !52
  %13 = add i64 %12, %11
  store i64 %13, ptr %6, align 8, !tbaa !52
  br label %78

14:                                               ; preds = %4
  %15 = load i64, ptr %7, align 8, !tbaa !52
  %16 = load i64, ptr %6, align 8, !tbaa !52
  %17 = sub i64 %16, %15
  store i64 %17, ptr %6, align 8, !tbaa !52
  br label %78

18:                                               ; preds = %4
  %19 = load i64, ptr %7, align 8, !tbaa !52
  %20 = load i64, ptr %6, align 8, !tbaa !52
  %21 = mul i64 %20, %19
  store i64 %21, ptr %6, align 8, !tbaa !52
  br label %78

22:                                               ; preds = %4
  %23 = load i64, ptr %7, align 8, !tbaa !52
  %24 = load i64, ptr %6, align 8, !tbaa !52
  %25 = and i64 %24, %23
  store i64 %25, ptr %6, align 8, !tbaa !52
  br label %78

26:                                               ; preds = %4
  %27 = load i64, ptr %7, align 8, !tbaa !52
  %28 = load i64, ptr %6, align 8, !tbaa !52
  %29 = or i64 %28, %27
  store i64 %29, ptr %6, align 8, !tbaa !52
  br label %78

30:                                               ; preds = %4
  %31 = load i64, ptr %7, align 8, !tbaa !52
  %32 = load i64, ptr %6, align 8, !tbaa !52
  %33 = xor i64 %32, %31
  store i64 %33, ptr %6, align 8, !tbaa !52
  br label %78

34:                                               ; preds = %4
  %35 = load i64, ptr %7, align 8, !tbaa !52
  %36 = and i64 %35, 63
  %37 = load i64, ptr %6, align 8, !tbaa !52
  %38 = shl i64 %37, %36
  store i64 %38, ptr %6, align 8, !tbaa !52
  br label %78

39:                                               ; preds = %4
  %40 = load i64, ptr %7, align 8, !tbaa !52
  %41 = and i64 %40, 63
  %42 = load i64, ptr %6, align 8, !tbaa !52
  %43 = lshr i64 %42, %41
  store i64 %43, ptr %6, align 8, !tbaa !52
  br label %78

44:                                               ; preds = %4
  %45 = load i64, ptr %6, align 8, !tbaa !52
  %46 = load i64, ptr %7, align 8, !tbaa !52
  %47 = and i64 %46, 63
  %48 = ashr i64 %45, %47
  store i64 %48, ptr %6, align 8, !tbaa !52
  br label %78

49:                                               ; preds = %4
  %50 = load i64, ptr %6, align 8, !tbaa !52
  %51 = load i64, ptr %7, align 8, !tbaa !52
  %52 = and i64 %51, 63
  %53 = shl i64 %50, %52
  %54 = load i64, ptr %6, align 8, !tbaa !52
  %55 = load i64, ptr %7, align 8, !tbaa !52
  %56 = and i64 %55, 63
  %57 = trunc i64 %56 to i32
  %58 = sub nsw i32 0, %57
  %59 = sext i32 %58 to i64
  %60 = and i64 %59, 63
  %61 = lshr i64 %54, %60
  %62 = or i64 %53, %61
  store i64 %62, ptr %6, align 8, !tbaa !52
  br label %78

63:                                               ; preds = %4
  %64 = load i64, ptr %6, align 8, !tbaa !52
  %65 = load i64, ptr %7, align 8, !tbaa !52
  %66 = and i64 %65, 63
  %67 = trunc i64 %66 to i32
  %68 = sub nsw i32 0, %67
  %69 = sext i32 %68 to i64
  %70 = and i64 %69, 63
  %71 = shl i64 %64, %70
  %72 = load i64, ptr %6, align 8, !tbaa !52
  %73 = load i64, ptr %7, align 8, !tbaa !52
  %74 = and i64 %73, 63
  %75 = lshr i64 %72, %74
  %76 = or i64 %71, %75
  store i64 %76, ptr %6, align 8, !tbaa !52
  br label %78

77:                                               ; preds = %4
  br label %78

78:                                               ; preds = %77, %63, %49, %44, %39, %34, %30, %26, %22, %18, %14, %10
  %79 = load i64, ptr %6, align 8, !tbaa !52
  ret i64 %79
}

; Function Attrs: nounwind uwtable
define internal i32 @fold_simplify_andor_k64(ptr noundef %0) #0 {
  %2 = alloca i32, align 4
  %3 = alloca ptr, align 8
  %4 = alloca ptr, align 8
  %5 = alloca i32, align 4
  %6 = alloca i64, align 8
  store ptr %0, ptr %3, align 8, !tbaa !4
  call void @llvm.lifetime.start.p0(i64 8, ptr %4) #8
  %7 = load ptr, ptr %3, align 8, !tbaa !4
  %8 = getelementptr inbounds nuw %struct.jit_State, ptr %7, i32 0, i32 0
  %9 = getelementptr inbounds nuw %struct.GCtrace, ptr %8, i32 0, i32 7
  %10 = load ptr, ptr %9, align 8, !tbaa !32
  %11 = load ptr, ptr %3, align 8, !tbaa !4
  %12 = getelementptr inbounds nuw %struct.jit_State, ptr %11, i32 0, i32 14
  %13 = getelementptr inbounds nuw %struct.FoldState, ptr %12, i32 0, i32 1
  %14 = getelementptr inbounds [2 x %union.IRIns], ptr %13, i64 0, i64 0
  %15 = getelementptr inbounds nuw %struct.anon, ptr %14, i32 0, i32 1
  %16 = load i16, ptr %15, align 2, !tbaa !29
  %17 = zext i16 %16 to i64
  %18 = getelementptr inbounds nuw %union.IRIns, ptr %10, i64 %17
  store ptr %18, ptr %4, align 8, !tbaa !38
  %19 = load ptr, ptr %3, align 8, !tbaa !4
  %20 = getelementptr inbounds nuw %struct.jit_State, ptr %19, i32 0, i32 14
  %21 = getelementptr inbounds nuw %struct.FoldState, ptr %20, i32 0, i32 1
  %22 = getelementptr inbounds [2 x %union.IRIns], ptr %21, i64 0, i64 0
  %23 = getelementptr inbounds nuw %struct.anon.0, ptr %22, i32 0, i32 1
  %24 = getelementptr inbounds nuw %struct.IRType1, ptr %23, i32 0, i32 0
  %25 = load i8, ptr %24, align 4, !tbaa !29
  %26 = zext i8 %25 to i32
  %27 = and i32 %26, 64
  %28 = icmp ne i32 %27, 0
  br i1 %28, label %29, label %30

29:                                               ; preds = %1
  store i32 0, ptr %2, align 4
  store i32 1, ptr %5, align 4
  br label %79

30:                                               ; preds = %1
  %31 = load ptr, ptr %4, align 8, !tbaa !38
  %32 = getelementptr inbounds nuw %struct.anon.0, ptr %31, i32 0, i32 2
  %33 = load i8, ptr %32, align 1, !tbaa !29
  %34 = zext i8 %33 to i32
  %35 = icmp eq i32 %34, 29
  br i1 %35, label %36, label %78

36:                                               ; preds = %30
  call void @llvm.lifetime.start.p0(i64 8, ptr %6) #8
  %37 = load ptr, ptr %3, align 8, !tbaa !4
  %38 = load ptr, ptr %4, align 8, !tbaa !38
  %39 = getelementptr inbounds %union.IRIns, ptr %38, i64 1
  %40 = load i64, ptr %39, align 8, !tbaa !29
  %41 = load ptr, ptr %3, align 8, !tbaa !4
  %42 = getelementptr inbounds nuw %struct.jit_State, ptr %41, i32 0, i32 14
  %43 = getelementptr inbounds nuw %struct.FoldState, ptr %42, i32 0, i32 2
  %44 = getelementptr inbounds [2 x %union.IRIns], ptr %43, i64 0, i64 1
  %45 = load i64, ptr %44, align 8, !tbaa !29
  %46 = load ptr, ptr %3, align 8, !tbaa !4
  %47 = getelementptr inbounds nuw %struct.jit_State, ptr %46, i32 0, i32 14
  %48 = getelementptr inbounds nuw %struct.FoldState, ptr %47, i32 0, i32 0
  %49 = getelementptr inbounds nuw %struct.anon.0, ptr %48, i32 0, i32 2
  %50 = load i8, ptr %49, align 1, !tbaa !29
  %51 = zext i8 %50 to i32
  %52 = call i64 @kfold_int64arith(ptr noundef %37, i64 noundef %40, i64 noundef %45, i32 noundef %51)
  store i64 %52, ptr %6, align 8, !tbaa !52
  %53 = load i64, ptr %6, align 8, !tbaa !52
  %54 = load ptr, ptr %3, align 8, !tbaa !4
  %55 = getelementptr inbounds nuw %struct.jit_State, ptr %54, i32 0, i32 14
  %56 = getelementptr inbounds nuw %struct.FoldState, ptr %55, i32 0, i32 0
  %57 = getelementptr inbounds nuw %struct.anon.0, ptr %56, i32 0, i32 2
  %58 = load i8, ptr %57, align 1, !tbaa !29
  %59 = zext i8 %58 to i32
  %60 = icmp eq i32 %59, 33
  %61 = select i1 %60, i64 0, i64 -1
  %62 = icmp eq i64 %53, %61
  br i1 %62, label %63, label %74

63:                                               ; preds = %36
  %64 = load ptr, ptr %3, align 8, !tbaa !4
  %65 = getelementptr inbounds nuw %struct.jit_State, ptr %64, i32 0, i32 14
  %66 = getelementptr inbounds nuw %struct.FoldState, ptr %65, i32 0, i32 1
  %67 = getelementptr inbounds [2 x %union.IRIns], ptr %66, i64 0, i64 0
  %68 = getelementptr inbounds nuw %struct.anon, ptr %67, i32 0, i32 0
  %69 = load i16, ptr %68, align 8, !tbaa !29
  %70 = load ptr, ptr %3, align 8, !tbaa !4
  %71 = getelementptr inbounds nuw %struct.jit_State, ptr %70, i32 0, i32 14
  %72 = getelementptr inbounds nuw %struct.FoldState, ptr %71, i32 0, i32 0
  %73 = getelementptr inbounds nuw %struct.anon, ptr %72, i32 0, i32 0
  store i16 %69, ptr %73, align 8, !tbaa !29
  store i32 1, ptr %2, align 4
  store i32 1, ptr %5, align 4
  br label %75

74:                                               ; preds = %36
  store i32 0, ptr %5, align 4
  br label %75

75:                                               ; preds = %74, %63
  call void @llvm.lifetime.end.p0(i64 8, ptr %6) #8
  %76 = load i32, ptr %5, align 4
  switch i32 %76, label %79 [
    i32 0, label %77
  ]

77:                                               ; preds = %75
  br label %78

78:                                               ; preds = %77, %30
  store i32 0, ptr %2, align 4
  store i32 1, ptr %5, align 4
  br label %79

79:                                               ; preds = %78, %75, %29
  call void @llvm.lifetime.end.p0(i64 8, ptr %4) #8
  %80 = load i32, ptr %2, align 4
  ret i32 %80
}