; Function Attrs: mustprogress nofree norecurse nosync nounwind willreturn memory(read, argmem: readwrite, inaccessiblemem: none) uwtable
define internal range(i32 0, 2) i32 @fold_simplify_andor_k64(ptr noundef captures(none) %0) #8 {
  %2 = getelementptr inbounds nuw i8, ptr %0, i64 32
  %3 = load ptr, ptr %2, align 8, !tbaa !30
  %4 = getelementptr inbounds nuw i8, ptr %0, i64 184
  %5 = getelementptr inbounds nuw i8, ptr %0, i64 192
  %6 = getelementptr inbounds nuw i8, ptr %0, i64 194
  %7 = load i16, ptr %6, align 2, !tbaa !28
  %8 = zext i16 %7 to i64
  %9 = getelementptr inbounds nuw %union.IRIns, ptr %3, i64 %8
  %10 = getelementptr inbounds nuw i8, ptr %0, i64 196
  %11 = load i8, ptr %10, align 4, !tbaa !28
  %12 = and i8 %11, 64
  %.not = icmp eq i8 %12, 0
  br i1 %.not, label %13, label %.critedge

13:                                               ; preds = %1
  %14 = getelementptr inbounds nuw i8, ptr %9, i64 5
  %15 = load i8, ptr %14, align 1, !tbaa !28
  %16 = icmp eq i8 %15, 29
  br i1 %16, label %17, label %.critedge

17:                                               ; preds = %13
  %18 = getelementptr inbounds nuw i8, ptr %9, i64 8
  %19 = load i64, ptr %18, align 8, !tbaa !28
  %20 = getelementptr inbounds nuw i8, ptr %0, i64 216
  %21 = load i64, ptr %20, align 8, !tbaa !28
  %22 = getelementptr inbounds nuw i8, ptr %0, i64 189
  %23 = load i8, ptr %22, align 1, !tbaa !28
  switch i8 %23, label %kfold_int64arith.exit [
    i8 41, label %24
    i8 42, label %26
    i8 43, label %28
    i8 33, label %30
    i8 34, label %32
    i8 35, label %34
    i8 36, label %36
    i8 37, label %39
    i8 38, label %42
    i8 39, label %45
    i8 40, label %47
  ]

24:                                               ; preds = %17
  %25 = add i64 %21, %19
  br label %kfold_int64arith.exit

26:                                               ; preds = %17
  %27 = sub i64 %19, %21
  br label %kfold_int64arith.exit

28:                                               ; preds = %17
  %29 = mul i64 %21, %19
  br label %kfold_int64arith.exit

30:                                               ; preds = %17
  %31 = and i64 %21, %19
  br label %kfold_int64arith.exit

32:                                               ; preds = %17
  %33 = or i64 %21, %19
  br label %kfold_int64arith.exit

34:                                               ; preds = %17
  %35 = xor i64 %21, %19
  br label %kfold_int64arith.exit

36:                                               ; preds = %17
  %37 = and i64 %21, 63
  %38 = shl i64 %19, %37
  br label %kfold_int64arith.exit

39:                                               ; preds = %17
  %40 = and i64 %21, 63
  %41 = lshr i64 %19, %40
  br label %kfold_int64arith.exit

42:                                               ; preds = %17
  %43 = and i64 %21, 63
  %44 = ashr i64 %19, %43
  br label %kfold_int64arith.exit

45:                                               ; preds = %17
  %46 = tail call i64 @llvm.fshl.i64(i64 %19, i64 %19, i64 %21)
  br label %kfold_int64arith.exit

47:                                               ; preds = %17
  %48 = tail call i64 @llvm.fshr.i64(i64 %19, i64 %19, i64 %21)
  br label %kfold_int64arith.exit

kfold_int64arith.exit:                            ; preds = %17, %24, %26, %28, %30, %32, %34, %36, %39, %42, %45, %47
  %.0.i = phi i64 [ %19, %17 ], [ %48, %47 ], [ %46, %45 ], [ %44, %42 ], [ %41, %39 ], [ %38, %36 ], [ %35, %34 ], [ %33, %32 ], [ %31, %30 ], [ %29, %28 ], [ %27, %26 ], [ %25, %24 ]
  %49 = icmp ne i8 %23, 33
  %50 = sext i1 %49 to i64
  %.not14 = icmp eq i64 %.0.i, %50
  br i1 %.not14, label %51, label %.critedge

51:                                               ; preds = %kfold_int64arith.exit
  %52 = load i16, ptr %5, align 8, !tbaa !28
  store i16 %52, ptr %4, align 8, !tbaa !28
  br label %.critedge

.critedge:                                        ; preds = %13, %kfold_int64arith.exit, %51, %1
  %.0 = phi i32 [ 1, %51 ], [ 0, %1 ], [ 0, %kfold_int64arith.exit ], [ 0, %13 ]
  ret i32 %.0
}